; Function Attrs: nofree norecurse nosync nounwind memory(read, inaccessiblemem: none) uwtable
define range(i32 -2147483648, 2147483647) i32 @Gia_ManBmcFindFirst(ptr noundef readonly captures(none) %0) local_unnamed_addr #7 {
  %2 = getelementptr i8, ptr %0, i64 16
  %.val11 = load i32, ptr %2, align 8, !tbaa !35
  %3 = getelementptr i8, ptr %0, i64 72
  %.val12 = load ptr, ptr %3, align 8, !tbaa !3
  %4 = getelementptr i8, ptr %.val12, i64 4
  %.val12.val = load i32, ptr %4, align 4, !tbaa !28
  %5 = sub nsw i32 %.val12.val, %.val11
  %6 = icmp sgt i32 %5, 0
  br i1 %6, label %.lr.ph, label %.critedge

.lr.ph:                                           ; preds = %1
  %7 = getelementptr i8, ptr %0, i64 32
  %.val13 = load ptr, ptr %7, align 8, !tbaa !32
  %.not = icmp eq ptr %.val13, null
  br i1 %.not, label %.critedge, label %.lr.ph.split

.lr.ph.split:                                     ; preds = %.lr.ph
  %8 = getelementptr i8, ptr %.val12, i64 8
  %.val14.val = load ptr, ptr %8, align 8, !tbaa !37
  %wide.trip.count = zext nneg i32 %5 to i64
  br label %9

9:                                                ; preds = %.lr.ph.split, %23
  %indvars.iv = phi i64 [ 0, %.lr.ph.split ], [ %indvars.iv.next, %23 ]
  %10 = getelementptr inbounds nuw i32, ptr %.val14.val, i64 %indvars.iv
  %11 = load i32, ptr %10, align 4, !tbaa !38
  %12 = sext i32 %11 to i64
  %13 = getelementptr inbounds %struct.Gia_Obj_t_, ptr %.val13, i64 %12
  %14 = load i64, ptr %13, align 4
  %15 = and i64 %14, 536870911
  %16 = sub nsw i64 0, %15
  %17 = getelementptr inbounds %struct.Gia_Obj_t_, ptr %13, i64 %16
  %18 = lshr i64 %14, 29
  %19 = and i64 %18, 1
  %20 = ptrtoint ptr %17 to i64
  %21 = xor i64 %19, %20
  %22 = inttoptr i64 %21 to ptr
  %.not10 = icmp eq ptr %.val13, %22
  br i1 %.not10, label %23, label %.critedge.loopexit.split.loop.exit21

23:                                               ; preds = %9
  %indvars.iv.next = add nuw nsw i64 %indvars.iv, 1
  %exitcond.not = icmp eq i64 %indvars.iv.next, %wide.trip.count
  br i1 %exitcond.not, label %.critedge, label %9, !llvm.loop !110

.critedge.loopexit.split.loop.exit21:             ; preds = %9
  %24 = trunc nuw nsw i64 %indvars.iv to i32
  br label %.critedge

.critedge:                                        ; preds = %23, %.critedge.loopexit.split.loop.exit21, %.lr.ph, %1
  %.08 = phi i32 [ -1, %1 ], [ -1, %.lr.ph ], [ %24, %.critedge.loopexit.split.loop.exit21 ], [ -1, %23 ]
  ret i32 %.08
}